target datalayout = "e-m:e-p270:32:32-p271:32:32-p272:64:64-i64:64-i128:128-f80:128-n8:16:32:64-S128"
target triple = "x86_64-pc-linux-gnu"

%struct.SDL_Process = type { i8, i8, i32, i32, ptr }

@.str = private unnamed_addr constant [26 x i8] c"Parameter '%s' is invalid\00", align 1
@.str.8 = private unnamed_addr constant [8 x i8] c"process\00", align 1

; Function Attrs: nounwind uwtable
define hidden i32 @SDL_GetProcessProperties_REAL(ptr noundef %0) #0 {
  %2 = alloca i32, align 4
  %3 = alloca ptr, align 8
  store ptr %0, ptr %3, align 8
  %4 = load ptr, ptr %3, align 8
  %5 = icmp ne ptr %4, null
  br i1 %5, label %9, label %6

6:                                                ; preds = %1
  %7 = call zeroext i1 (ptr, ...) @SDL_SetError_REAL(ptr noundef @.str, ptr noundef @.str.8)
  %8 = zext i1 %7 to i32
  store i32 %8, ptr %2, align 4
  br label %13

9:                                                ; preds = %1
  %10 = load ptr, ptr %3, align 8
  %11 = getelementptr inbounds nuw %struct.SDL_Process, ptr %10, i32 0, i32 3
  %12 = load i32, ptr %11, align 8
  store i32 %12, ptr %2, align 4
  br label %13

13:                                               ; preds = %9, %6
  %14 = load i32, ptr %2, align 4
  ret i32 %14
}