; Function Attrs: nounwind uwtable
define hidden i32 @SDL_GetProcessProperties_REAL(ptr noundef readonly captures(address_is_null) %0) local_unnamed_addr #0 {
  %.not = icmp eq ptr %0, null
  br i1 %.not, label %2, label %5

2:                                                ; preds = %1
  %3 = tail call zeroext i1 (ptr, ...) @SDL_SetError_REAL(ptr noundef nonnull @.str, ptr noundef nonnull @.str.8) #3
  %4 = zext i1 %3 to i32
  br label %8

5:                                                ; preds = %1
  %6 = getelementptr inbounds nuw i8, ptr %0, i64 8
  %7 = load i32, ptr %6, align 8
  br label %8

8:                                                ; preds = %5, %2
  %.0 = phi i32 [ %7, %5 ], [ %4, %2 ]
  ret i32 %.0
}